(dp0
I1
F0.01859971800601803
sI2
F0.023214983496329215
sI3
F0.026094347335192884
sI4
F0.01808831129542561
sI5
F0.39897466555981925
sI6
F0.03901456968906832
sI7
F0.032998337928190576
sI8
F0.020052905384356355
sI9
F0.02726301971256782
sI10
F0.023294215521913957
sI11
F0.05100021428661465
sI12
F0.028075147974811417
sI13
F0.01830800009363785
sI14
F0.018380029207805796
sI15
F0.013642314223409101
sI16
F0.01613092011791166
sI17
F0.03124803045390947
sI18
F0.031096769314156784
sI19
F0.029366269846271862
sI20
F0.0276951943975755
sI21
F0.016516275878710174
sI22
F0.019316407691989102
sI23
F0.022148952606643606
sI24
F0.016019274990951342
sI25
F0.03327204856202877
s.